target datalayout = "e-m:e-p270:32:32-p271:32:32-p272:64:64-i64:64-i128:128-f80:128-n8:16:32:64-S128"
target triple = "x86_64-pc-linux-gnu"

%struct.tr2tls_thread_ctx = type { ptr, ptr, i64, i64, i32, %struct.tr2_timer_block, %struct.tr2_counter_block, i8 }
%struct.tr2_timer_block = type { [2 x %struct.tr2_timer] }
%struct.tr2_timer = type { i64, i64, i64, i64, i64, i32 }
%struct.tr2_counter_block = type { [6 x %struct.tr2_counter] }
%struct.tr2_counter = type { i64 }

@tr2tls_key = internal global i32 0, align 4
@.str.1 = private unnamed_addr constant [8 x i8] c"unknown\00", align 1

; Function Attrs: nounwind uwtable
define dso_local ptr @tr2tls_get_self() #0 {
  %1 = alloca ptr, align 8
  call void @llvm.lifetime.start.p0(i64 8, ptr %1) #8
  %2 = load i32, ptr @tr2tls_key, align 4, !tbaa !25
  %3 = call ptr @pthread_getspecific(i32 noundef %2) #8
  store ptr %3, ptr %1, align 8, !tbaa !11
  %4 = load ptr, ptr %1, align 8, !tbaa !11
  %5 = icmp ne ptr %4, null
  br i1 %5, label %10, label %6

6:                                                ; preds = %0
  %7 = call i64 @getnanotime()
  %8 = udiv i64 %7, 1000
  %9 = call ptr @tr2tls_create_self(ptr noundef @.str.1, i64 noundef %8)
  store ptr %9, ptr %1, align 8, !tbaa !11
  br label %10

10:                                               ; preds = %6, %0
  %11 = load ptr, ptr %1, align 8, !tbaa !11
  call void @llvm.lifetime.end.p0(i64 8, ptr %1) #8
  ret ptr %11
}

; Function Attrs: nounwind uwtable
define dso_local void @tr2tls_unset_self() #0 {
  %1 = alloca ptr, align 8
  call void @llvm.lifetime.start.p0(i64 8, ptr %1) #8
  %2 = call ptr @tr2tls_get_self()
  store ptr %2, ptr %1, align 8, !tbaa !11
  %3 = load i32, ptr @tr2tls_key, align 4, !tbaa !25
  %4 = call i32 @pthread_setspecific(i32 noundef %3, ptr noundef null) #8
  %5 = load ptr, ptr %1, align 8, !tbaa !11
  %6 = getelementptr inbounds nuw %struct.tr2tls_thread_ctx, ptr %5, i32 0, i32 0
  %7 = load ptr, ptr %6, align 8, !tbaa !24
  call void @free(ptr noundef %7) #8
  %8 = load ptr, ptr %1, align 8, !tbaa !11
  %9 = getelementptr inbounds nuw %struct.tr2tls_thread_ctx, ptr %8, i32 0, i32 1
  %10 = load ptr, ptr %9, align 8, !tbaa !19
  call void @free(ptr noundef %10) #8
  %11 = load ptr, ptr %1, align 8, !tbaa !11
  call void @free(ptr noundef %11) #8
  call void @llvm.lifetime.end.p0(i64 8, ptr %1) #8
  ret void
}