; Function Attrs: nounwind uwtable
define dso_local void @tr2tls_unset_self() local_unnamed_addr #0 {
  %1 = load i32, ptr @tr2tls_key, align 4, !tbaa !18
  %2 = tail call ptr @pthread_getspecific(i32 noundef %1) #11
  %.not.i = icmp eq ptr %2, null
  br i1 %.not.i, label %3, label %tr2tls_get_self.exit

3:                                                ; preds = %0
  %4 = tail call i64 @getnanotime() #11
  %5 = udiv i64 %4, 1000
  %6 = tail call ptr @tr2tls_create_self(ptr noundef nonnull @.str.1, i64 noundef %5)
  br label %tr2tls_get_self.exit

tr2tls_get_self.exit:                             ; preds = %0, %3
  %.0.i = phi ptr [ %2, %0 ], [ %6, %3 ]
  %7 = load i32, ptr @tr2tls_key, align 4, !tbaa !18
  %8 = tail call i32 @pthread_setspecific(i32 noundef %7, ptr noundef null) #11
  %9 = load ptr, ptr %.0.i, align 8, !tbaa !25
  tail call void @free(ptr noundef %9) #11
  %10 = getelementptr inbounds nuw i8, ptr %.0.i, i64 8
  %11 = load ptr, ptr %10, align 8, !tbaa !16
  tail call void @free(ptr noundef %11) #11
  tail call void @free(ptr noundef %.0.i) #11
  ret void
}